; Function Attrs: mustprogress nounwind uwtable
define dso_local void @_ZN4llvm12DWARFContextD2Ev(ptr noundef nonnull align 8 dereferenceable(105) %0) unnamed_addr #0 align 2 {
  store ptr getelementptr inbounds inrange(-16, 72) (i8, ptr @_ZTVN4llvm12DWARFContextE, i64 16), ptr %0, align 8
  %2 = getelementptr inbounds nuw i8, ptr %0, i64 96
  %3 = load ptr, ptr %2, align 8
  %.not.i = icmp eq ptr %3, null
  br i1 %.not.i, label %_ZNSt10unique_ptrIKN4llvm11DWARFObjectESt14default_deleteIS2_EED2Ev.exit, label %_ZNKSt14default_deleteIKN4llvm11DWARFObjectEEclEPS2_.exit.i

_ZNKSt14default_deleteIKN4llvm11DWARFObjectEEclEPS2_.exit.i: ; preds = %1
  %4 = load ptr, ptr %3, align 8
  %5 = getelementptr inbounds i8, ptr %4, i64 8
  %6 = load ptr, ptr %5, align 8
  tail call void %6(ptr noundef nonnull align 8 dereferenceable(32) %3) #24
  br label %_ZNSt10unique_ptrIKN4llvm11DWARFObjectESt14default_deleteIS2_EED2Ev.exit

_ZNSt10unique_ptrIKN4llvm11DWARFObjectESt14default_deleteIS2_EED2Ev.exit: ; preds = %1, %_ZNKSt14default_deleteIKN4llvm11DWARFObjectEEclEPS2_.exit.i
  store ptr null, ptr %2, align 8
  %7 = getelementptr inbounds i8, ptr %0, i64 80
  %8 = load ptr, ptr %7, align 8
  %.not.i.i = icmp eq ptr %8, null
  br i1 %.not.i.i, label %_ZNSt8functionIFvN4llvm5ErrorEEED2Ev.exit, label %9

9:                                                ; preds = %_ZNSt10unique_ptrIKN4llvm11DWARFObjectESt14default_deleteIS2_EED2Ev.exit
  %10 = getelementptr inbounds nuw i8, ptr %0, i64 64
  %11 = tail call noundef zeroext i1 %8(ptr noundef nonnull align 8 dereferenceable(16) %10, ptr noundef nonnull align 8 dereferenceable(16) %10, i32 noundef 3) #24
  br label %_ZNSt8functionIFvN4llvm5ErrorEEED2Ev.exit

_ZNSt8functionIFvN4llvm5ErrorEEED2Ev.exit:        ; preds = %_ZNSt10unique_ptrIKN4llvm11DWARFObjectESt14default_deleteIS2_EED2Ev.exit, %9
  %12 = getelementptr inbounds i8, ptr %0, i64 48
  %13 = load ptr, ptr %12, align 8
  %.not.i.i1 = icmp eq ptr %13, null
  br i1 %.not.i.i1, label %_ZNSt8functionIFvN4llvm5ErrorEEED2Ev.exit2, label %14

14:                                               ; preds = %_ZNSt8functionIFvN4llvm5ErrorEEED2Ev.exit
  %15 = getelementptr inbounds nuw i8, ptr %0, i64 32
  %16 = tail call noundef zeroext i1 %13(ptr noundef nonnull align 8 dereferenceable(16) %15, ptr noundef nonnull align 8 dereferenceable(16) %15, i32 noundef 3) #24
  br label %_ZNSt8functionIFvN4llvm5ErrorEEED2Ev.exit2

_ZNSt8functionIFvN4llvm5ErrorEEED2Ev.exit2:       ; preds = %_ZNSt8functionIFvN4llvm5ErrorEEED2Ev.exit, %14
  %17 = getelementptr inbounds nuw i8, ptr %0, i64 16
  %18 = load ptr, ptr %17, align 8
  %.not.i3 = icmp eq ptr %18, null
  br i1 %.not.i3, label %_ZNSt10unique_ptrIN4llvm12DWARFContext17DWARFContextStateESt14default_deleteIS2_EED2Ev.exit, label %_ZNKSt14default_deleteIN4llvm12DWARFContext17DWARFContextStateEEclEPS2_.exit.i

_ZNKSt14default_deleteIN4llvm12DWARFContext17DWARFContextStateEEclEPS2_.exit.i: ; preds = %_ZNSt8functionIFvN4llvm5ErrorEEED2Ev.exit2
  %19 = load ptr, ptr %18, align 8
  %20 = getelementptr inbounds i8, ptr %19, i64 8
  %21 = load ptr, ptr %20, align 8
  tail call void %21(ptr noundef nonnull align 8 dereferenceable(16) %18) #24
  br label %_ZNSt10unique_ptrIN4llvm12DWARFContext17DWARFContextStateESt14default_deleteIS2_EED2Ev.exit

_ZNSt10unique_ptrIN4llvm12DWARFContext17DWARFContextStateESt14default_deleteIS2_EED2Ev.exit: ; preds = %_ZNSt8functionIFvN4llvm5ErrorEEED2Ev.exit2, %_ZNKSt14default_deleteIN4llvm12DWARFContext17DWARFContextStateEEclEPS2_.exit.i
  store ptr null, ptr %17, align 8
  ret void
}